; Function Attrs: mustprogress uwtable
define dso_local void @_ZN4Json18StyledStreamWriter23writeCommentBeforeValueERKNS_5ValueE(ptr noundef nonnull align 8 dereferenceable(105) %0, ptr noundef nonnull align 8 dereferenceable(40) %1) local_unnamed_addr #0 align 2 personality ptr @__gxx_personality_v0 {
  %3 = alloca %"class.std::__cxx11::basic_string", align 8
  %4 = tail call noundef zeroext i1 @_ZNK4Json5Value10hasCommentENS_16CommentPlacementE(ptr noundef nonnull align 8 dereferenceable(40) %1, i32 noundef 0)
  br i1 %4, label %5, label %42

5:                                                ; preds = %2
  %6 = getelementptr inbounds i8, ptr %0, i64 104
  %7 = load i8, ptr %6, align 8
  %8 = and i8 %7, 2
  %.not = icmp eq i8 %8, 0
  br i1 %.not, label %9, label %15

9:                                                ; preds = %5
  %10 = getelementptr inbounds i8, ptr %0, i64 24
  %11 = load ptr, ptr %10, align 8
  %12 = tail call noundef nonnull align 8 dereferenceable(8) ptr @_ZStlsISt11char_traitsIcEERSt13basic_ostreamIcT_ES5_c(ptr noundef nonnull align 8 dereferenceable(8) %11, i8 noundef signext 10)
  %13 = getelementptr inbounds i8, ptr %0, i64 32
  %14 = tail call noundef nonnull align 8 dereferenceable(8) ptr @_ZStlsIcSt11char_traitsIcESaIcEERSt13basic_ostreamIT_T0_ES7_RKNSt7__cxx1112basic_stringIS4_S5_T1_EE(ptr noundef nonnull align 8 dereferenceable(8) %12, ptr noundef nonnull align 8 dereferenceable(32) %13)
  br label %15

15:                                               ; preds = %9, %5
  call void @_ZNK4Json5Value10getCommentB5cxx11ENS_16CommentPlacementE(ptr dead_on_unwind nonnull writable sret(%"class.std::__cxx11::basic_string") align 8 %3, ptr noundef nonnull align 8 dereferenceable(40) %1, i32 noundef 0)
  %16 = call ptr @_ZNKSt7__cxx1112basic_stringIcSt11char_traitsIcESaIcEE5beginEv(ptr noundef nonnull align 8 dereferenceable(32) %3) #19
  %17 = call ptr @_ZNKSt7__cxx1112basic_stringIcSt11char_traitsIcESaIcEE3endEv(ptr noundef nonnull align 8 dereferenceable(32) %3) #19
  %.not1618 = icmp eq ptr %16, %17
  br i1 %.not1618, label %._crit_edge, label %.lr.ph

.lr.ph:                                           ; preds = %15
  %18 = getelementptr inbounds i8, ptr %0, i64 24
  %19 = getelementptr inbounds i8, ptr %0, i64 32
  br label %20

20:                                               ; preds = %.lr.ph, %.critedge
  %.sroa.010.019 = phi ptr [ %16, %.lr.ph ], [ %38, %.critedge ]
  %21 = load ptr, ptr %18, align 8
  %22 = load i8, ptr %.sroa.010.019, align 1
  %23 = invoke noundef nonnull align 8 dereferenceable(8) ptr @_ZStlsISt11char_traitsIcEERSt13basic_ostreamIcT_ES5_c(ptr noundef nonnull align 8 dereferenceable(8) %21, i8 noundef signext %22)
          to label %24 unwind label %36

24:                                               ; preds = %20
  %25 = load i8, ptr %.sroa.010.019, align 1
  %26 = icmp eq i8 %25, 10
  br i1 %26, label %27, label %.critedge

27:                                               ; preds = %24
  %28 = getelementptr inbounds i8, ptr %.sroa.010.019, i64 1
  %29 = call ptr @_ZNKSt7__cxx1112basic_stringIcSt11char_traitsIcESaIcEE3endEv(ptr noundef nonnull align 8 dereferenceable(32) %3) #19
  %.not17 = icmp eq ptr %28, %29
  br i1 %.not17, label %.critedge, label %30

30:                                               ; preds = %27
  %31 = load i8, ptr %28, align 1
  %32 = icmp eq i8 %31, 47
  br i1 %32, label %33, label %.critedge

33:                                               ; preds = %30
  %34 = load ptr, ptr %18, align 8
  %35 = invoke noundef nonnull align 8 dereferenceable(8) ptr @_ZStlsIcSt11char_traitsIcESaIcEERSt13basic_ostreamIT_T0_ES7_RKNSt7__cxx1112basic_stringIS4_S5_T1_EE(ptr noundef nonnull align 8 dereferenceable(8) %34, ptr noundef nonnull align 8 dereferenceable(32) %19)
          to label %.critedge unwind label %36

36:                                               ; preds = %33, %20
  %37 = landingpad { ptr, i32 }
          cleanup
  call void @_ZNSt7__cxx1112basic_stringIcSt11char_traitsIcESaIcEED1Ev(ptr noundef nonnull align 8 dereferenceable(32) %3) #19
  resume { ptr, i32 } %37

.critedge:                                        ; preds = %24, %27, %33, %30
  %38 = getelementptr inbounds i8, ptr %.sroa.010.019, i64 1
  %39 = call ptr @_ZNKSt7__cxx1112basic_stringIcSt11char_traitsIcESaIcEE3endEv(ptr noundef nonnull align 8 dereferenceable(32) %3) #19
  %.not16 = icmp eq ptr %38, %39
  br i1 %.not16, label %._crit_edge, label %20, !llvm.loop !24

._crit_edge:                                      ; preds = %.critedge, %15
  %40 = load i8, ptr %6, align 8
  %41 = and i8 %40, -3
  store i8 %41, ptr %6, align 8
  call void @_ZNSt7__cxx1112basic_stringIcSt11char_traitsIcESaIcEED1Ev(ptr noundef nonnull align 8 dereferenceable(32) %3) #19
  br label %42

42:                                               ; preds = %2, %._crit_edge
  ret void
}